target datalayout = "e-m:e-p270:32:32-p271:32:32-p272:64:64-i64:64-i128:128-f80:128-n8:16:32:64-S128"
target triple = "x86_64-unknown-linux-gnu"

%"class.hermes::parser::JSLexer" = type { ptr, ptr, i32, %"class.std::unique_ptr", ptr, ptr, i8, i8, i8, i8, [4 x i8], %"class.hermes::parser::Token", %"class.llvh::SMLoc", ptr, ptr, ptr, i8, %"class.llvh::SmallString", %"class.llvh::SmallString", [46 x ptr], %"class.std::vector", %"class.std::vector.2" }
%"class.std::unique_ptr" = type { %"struct.std::__uniq_ptr_data" }
%"struct.std::__uniq_ptr_data" = type { %"class.std::__uniq_ptr_impl" }
%"class.std::__uniq_ptr_impl" = type { %"class.std::tuple" }
%"class.std::tuple" = type { %"struct.std::_Tuple_impl" }
%"struct.std::_Tuple_impl" = type { %"struct.std::_Head_base.1" }
%"struct.std::_Head_base.1" = type { ptr }
%"class.hermes::parser::Token" = type <{ i32, [4 x i8], %"class.llvh::SMRange", double, ptr, ptr, ptr, ptr, i8, [7 x i8] }>
%"class.llvh::SMRange" = type { %"class.llvh::SMLoc", %"class.llvh::SMLoc" }
%"class.llvh::SMLoc" = type { ptr }
%"class.llvh::SmallString" = type { %"class.llvh::SmallVector" }
%"class.llvh::SmallVector" = type { %"class.llvh::SmallVectorImpl", %"struct.llvh::SmallVectorStorage" }
%"class.llvh::SmallVectorImpl" = type { %"class.llvh::SmallVectorTemplateBase" }
%"class.llvh::SmallVectorTemplateBase" = type { %"class.llvh::SmallVectorTemplateCommon" }
%"class.llvh::SmallVectorTemplateCommon" = type { %"class.llvh::SmallVectorBase" }
%"class.llvh::SmallVectorBase" = type { ptr, i32, i32 }
%"struct.llvh::SmallVectorStorage" = type { [256 x %"struct.llvh::AlignedCharArrayUnion"] }
%"struct.llvh::AlignedCharArrayUnion" = type { %"struct.llvh::AlignedCharArray" }
%"struct.llvh::AlignedCharArray" = type { [1 x i8] }
%"class.std::vector" = type { %"struct.std::_Vector_base" }
%"struct.std::_Vector_base" = type { %"struct.std::_Vector_base<hermes::parser::StoredComment, std::allocator<hermes::parser::StoredComment>>::_Vector_impl" }
%"struct.std::_Vector_base<hermes::parser::StoredComment, std::allocator<hermes::parser::StoredComment>>::_Vector_impl" = type { %"struct.std::_Vector_base<hermes::parser::StoredComment, std::allocator<hermes::parser::StoredComment>>::_Vector_impl_data" }
%"struct.std::_Vector_base<hermes::parser::StoredComment, std::allocator<hermes::parser::StoredComment>>::_Vector_impl_data" = type { ptr, ptr, ptr }
%"class.std::vector.2" = type { %"struct.std::_Vector_base.3" }
%"struct.std::_Vector_base.3" = type { %"struct.std::_Vector_base<hermes::parser::StoredToken, std::allocator<hermes::parser::StoredToken>>::_Vector_impl" }
%"struct.std::_Vector_base<hermes::parser::StoredToken, std::allocator<hermes::parser::StoredToken>>::_Vector_impl" = type { %"struct.std::_Vector_base<hermes::parser::StoredToken, std::allocator<hermes::parser::StoredToken>>::_Vector_impl_data" }
%"struct.std::_Vector_base<hermes::parser::StoredToken, std::allocator<hermes::parser::StoredToken>>::_Vector_impl_data" = type { ptr, ptr, ptr }
%"class.hermes::parser::StoredToken" = type { i32, %"class.llvh::SMRange" }

; Function Attrs: mustprogress nounwind uwtable
define linkonce_odr hidden void @_ZN4llvh5SMLocC2Ev(ptr noundef nonnull align 8 dereferenceable(8) %this) unnamed_addr #0 comdat align 2 {
entry:
  %this.addr = alloca ptr, align 8
  store ptr %this, ptr %this.addr, align 8
  %this1 = load ptr, ptr %this.addr, align 8
  %Ptr = getelementptr inbounds %"class.llvh::SMLoc", ptr %this1, i32 0, i32 0
  store ptr null, ptr %Ptr, align 8
  ret void
}

; Function Attrs: mustprogress nounwind uwtable
define linkonce_odr hidden void @_ZNSt15__new_allocatorIN6hermes6parser11StoredTokenEE7destroyIS2_EEvPT_(ptr noundef nonnull align 1 dereferenceable(1) %this, ptr noundef %__p) #0 comdat align 2 {
entry:
  %this.addr = alloca ptr, align 8
  %__p.addr = alloca ptr, align 8
  store ptr %this, ptr %this.addr, align 8
  store ptr %__p, ptr %__p.addr, align 8
  ret void
}

; Function Attrs: mustprogress nounwind uwtable
define linkonce_odr hidden void @_ZN6hermes6parser5Token6setEndEPKc(ptr noundef nonnull align 8 dereferenceable(65) %this, ptr noundef %end) #0 comdat align 2 {
entry:
  %this.addr = alloca ptr, align 8
  %end.addr = alloca ptr, align 8
  %ref.tmp = alloca %"class.llvh::SMLoc", align 8
  store ptr %this, ptr %this.addr, align 8
  store ptr %end, ptr %end.addr, align 8
  %this1 = load ptr, ptr %this.addr, align 8
  %0 = load ptr, ptr %end.addr, align 8
  %call = call ptr @_ZN4llvh5SMLoc14getFromPointerEPKc(ptr noundef %0)
  %coerce.dive = getelementptr inbounds %"class.llvh::SMLoc", ptr %ref.tmp, i32 0, i32 0
  store ptr %call, ptr %coerce.dive, align 8
  %range_ = getelementptr inbounds %"class.hermes::parser::Token", ptr %this1, i32 0, i32 2
  %End = getelementptr inbounds %"class.llvh::SMRange", ptr %range_, i32 0, i32 1
  call void @llvm.memcpy.p0.p0.i64(ptr align 8 %End, ptr align 8 %ref.tmp, i64 8, i1 false)
  ret void
}

; Function Attrs: mustprogress nounwind uwtable
define linkonce_odr hidden ptr @_ZNK6hermes6parser5Token9getEndLocEv(ptr noundef nonnull align 8 dereferenceable(65) %this) #0 comdat align 2 {
entry:
  %retval = alloca %"class.llvh::SMLoc", align 8
  %this.addr = alloca ptr, align 8
  store ptr %this, ptr %this.addr, align 8
  %this1 = load ptr, ptr %this.addr, align 8
  %range_ = getelementptr inbounds %"class.hermes::parser::Token", ptr %this1, i32 0, i32 2
  %End = getelementptr inbounds %"class.llvh::SMRange", ptr %range_, i32 0, i32 1
  call void @llvm.memcpy.p0.p0.i64(ptr align 8 %retval, ptr align 8 %End, i64 8, i1 false)
  %coerce.dive = getelementptr inbounds %"class.llvh::SMLoc", ptr %retval, i32 0, i32 0
  %0 = load ptr, ptr %coerce.dive, align 8
  ret ptr %0
}

; Function Attrs: mustprogress nounwind uwtable
define linkonce_odr hidden ptr @_ZN4llvh5SMLoc14getFromPointerEPKc(ptr noundef %Ptr) #0 comdat align 2 {
entry:
  %retval = alloca %"class.llvh::SMLoc", align 8
  %Ptr.addr = alloca ptr, align 8
  store ptr %Ptr, ptr %Ptr.addr, align 8
  call void @_ZN4llvh5SMLocC2Ev(ptr noundef nonnull align 8 dereferenceable(8) %retval) #7
  %0 = load ptr, ptr %Ptr.addr, align 8
  %Ptr1 = getelementptr inbounds %"class.llvh::SMLoc", ptr %retval, i32 0, i32 0
  store ptr %0, ptr %Ptr1, align 8
  %coerce.dive = getelementptr inbounds %"class.llvh::SMLoc", ptr %retval, i32 0, i32 0
  %1 = load ptr, ptr %coerce.dive, align 8
  ret ptr %1
}

; Function Attrs: mustprogress nounwind uwtable
define linkonce_odr hidden void @_ZNSt16allocator_traitsISaIN6hermes6parser11StoredTokenEEE7destroyIS2_EEvRS3_PT_(ptr noundef nonnull align 1 dereferenceable(1) %__a, ptr noundef %__p) #0 comdat align 2 {
entry:
  %__a.addr = alloca ptr, align 8
  %__p.addr = alloca ptr, align 8
  store ptr %__a, ptr %__a.addr, align 8
  store ptr %__p, ptr %__p.addr, align 8
  %0 = load ptr, ptr %__a.addr, align 8
  %1 = load ptr, ptr %__p.addr, align 8
  call void @_ZNSt15__new_allocatorIN6hermes6parser11StoredTokenEE7destroyIS2_EEvPT_(ptr noundef nonnull align 1 dereferenceable(1) %0, ptr noundef %1) #7
  ret void
}

; Function Attrs: mustprogress nounwind uwtable
define linkonce_odr hidden void @_ZN6hermes6parser7JSLexer11finishTokenEPKc(ptr noundef nonnull align 8 dereferenceable(1128) %this, ptr noundef %end) #0 comdat align 2 {
entry:
  %this.addr = alloca ptr, align 8
  %end.addr = alloca ptr, align 8
  %ref.tmp = alloca %"class.llvh::SMLoc", align 8
  store ptr %this, ptr %this.addr, align 8
  store ptr %end, ptr %end.addr, align 8
  %this1 = load ptr, ptr %this.addr, align 8
  %token_ = getelementptr inbounds %"class.hermes::parser::JSLexer", ptr %this1, i32 0, i32 11
  %call = call ptr @_ZNK6hermes6parser5Token9getEndLocEv(ptr noundef nonnull align 8 dereferenceable(65) %token_)
  %coerce.dive = getelementptr inbounds %"class.llvh::SMLoc", ptr %ref.tmp, i32 0, i32 0
  store ptr %call, ptr %coerce.dive, align 8
  %prevTokenEndLoc_ = getelementptr inbounds %"class.hermes::parser::JSLexer", ptr %this1, i32 0, i32 12
  call void @llvm.memcpy.p0.p0.i64(ptr align 8 %prevTokenEndLoc_, ptr align 8 %ref.tmp, i64 8, i1 false)
  %token_2 = getelementptr inbounds %"class.hermes::parser::JSLexer", ptr %this1, i32 0, i32 11
  %0 = load ptr, ptr %end.addr, align 8
  call void @_ZN6hermes6parser5Token6setEndEPKc(ptr noundef nonnull align 8 dereferenceable(65) %token_2, ptr noundef %0)
  %storeTokens_ = getelementptr inbounds %"class.hermes::parser::JSLexer", ptr %this1, i32 0, i32 8
  %1 = load i8, ptr %storeTokens_, align 2
  %tobool = trunc i8 %1 to i1
  br i1 %tobool, label %if.then, label %if.end

if.then:                                          ; preds = %entry
  call void @_ZN6hermes6parser7JSLexer17storeCurrentTokenEv(ptr noundef nonnull align 8 dereferenceable(1128) %this1)
  br label %if.end

if.end:                                           ; preds = %if.then, %entry
  ret void
}

; Function Attrs: mustprogress nounwind uwtable
define linkonce_odr hidden void @_ZN6hermes6parser5Token8setStartEPKc(ptr noundef nonnull align 8 dereferenceable(65) %this, ptr noundef %start) #0 comdat align 2 {
entry:
  %this.addr = alloca ptr, align 8
  %start.addr = alloca ptr, align 8
  %ref.tmp = alloca %"class.llvh::SMLoc", align 8
  store ptr %this, ptr %this.addr, align 8
  store ptr %start, ptr %start.addr, align 8
  %this1 = load ptr, ptr %this.addr, align 8
  %0 = load ptr, ptr %start.addr, align 8
  %call = call ptr @_ZN4llvh5SMLoc14getFromPointerEPKc(ptr noundef %0)
  %coerce.dive = getelementptr inbounds %"class.llvh::SMLoc", ptr %ref.tmp, i32 0, i32 0
  store ptr %call, ptr %coerce.dive, align 8
  %range_ = getelementptr inbounds %"class.hermes::parser::Token", ptr %this1, i32 0, i32 2
  %Start = getelementptr inbounds %"class.llvh::SMRange", ptr %range_, i32 0, i32 0
  call void @llvm.memcpy.p0.p0.i64(ptr align 8 %Start, ptr align 8 %ref.tmp, i64 8, i1 false)
  ret void
}

; Function Attrs: mustprogress nounwind uwtable
define linkonce_odr hidden void @_ZNSt6vectorIN6hermes6parser11StoredTokenESaIS2_EE8pop_backEv(ptr noundef nonnull align 8 dereferenceable(24) %this) #0 comdat align 2 {
entry:
  %this.addr = alloca ptr, align 8
  store ptr %this, ptr %this.addr, align 8
  %this1 = load ptr, ptr %this.addr, align 8
  %_M_impl = getelementptr inbounds %"struct.std::_Vector_base.3", ptr %this1, i32 0, i32 0
  %_M_finish = getelementptr inbounds %"struct.std::_Vector_base<hermes::parser::StoredToken, std::allocator<hermes::parser::StoredToken>>::_Vector_impl_data", ptr %_M_impl, i32 0, i32 1
  %0 = load ptr, ptr %_M_finish, align 8
  %incdec.ptr = getelementptr inbounds %"class.hermes::parser::StoredToken", ptr %0, i32 -1
  store ptr %incdec.ptr, ptr %_M_finish, align 8
  %_M_impl2 = getelementptr inbounds %"struct.std::_Vector_base.3", ptr %this1, i32 0, i32 0
  %_M_impl3 = getelementptr inbounds %"struct.std::_Vector_base.3", ptr %this1, i32 0, i32 0
  %_M_finish4 = getelementptr inbounds %"struct.std::_Vector_base<hermes::parser::StoredToken, std::allocator<hermes::parser::StoredToken>>::_Vector_impl_data", ptr %_M_impl3, i32 0, i32 1
  %1 = load ptr, ptr %_M_finish4, align 8
  call void @_ZNSt16allocator_traitsISaIN6hermes6parser11StoredTokenEEE7destroyIS2_EEvRS3_PT_(ptr noundef nonnull align 1 dereferenceable(1) %_M_impl2, ptr noundef %1) #7
  ret void
}

; Function Attrs: mustprogress nounwind uwtable
define hidden noundef ptr @_ZN6hermes6parser7JSLexer29rescanRBraceInTemplateLiteralEv(ptr noundef nonnull align 8 dereferenceable(1128) %this) #0 align 2 {
entry:
  %this.addr = alloca ptr, align 8
  store ptr %this, ptr %this.addr, align 8
  %this1 = load ptr, ptr %this.addr, align 8
  %curCharPtr_ = getelementptr inbounds %"class.hermes::parser::JSLexer", ptr %this1, i32 0, i32 14
  %0 = load ptr, ptr %curCharPtr_, align 8
  %incdec.ptr = getelementptr inbounds i8, ptr %0, i32 -1
  store ptr %incdec.ptr, ptr %curCharPtr_, align 8
  %storeTokens_ = getelementptr inbounds %"class.hermes::parser::JSLexer", ptr %this1, i32 0, i32 8
  %1 = load i8, ptr %storeTokens_, align 2
  %tobool = trunc i8 %1 to i1
  br i1 %tobool, label %if.then, label %if.end

if.then:                                          ; preds = %entry
  %tokenStorage_ = getelementptr inbounds %"class.hermes::parser::JSLexer", ptr %this1, i32 0, i32 21
  call void @_ZNSt6vectorIN6hermes6parser11StoredTokenESaIS2_EE8pop_backEv(ptr noundef nonnull align 8 dereferenceable(24) %tokenStorage_) #7
  br label %if.end

if.end:                                           ; preds = %if.then, %entry
  %token_ = getelementptr inbounds %"class.hermes::parser::JSLexer", ptr %this1, i32 0, i32 11
  %curCharPtr_2 = getelementptr inbounds %"class.hermes::parser::JSLexer", ptr %this1, i32 0, i32 14
  %2 = load ptr, ptr %curCharPtr_2, align 8
  call void @_ZN6hermes6parser5Token8setStartEPKc(ptr noundef nonnull align 8 dereferenceable(65) %token_, ptr noundef %2)
  call void @_ZN6hermes6parser7JSLexer19scanTemplateLiteralEv(ptr noundef nonnull align 8 dereferenceable(1128) %this1)
  %curCharPtr_3 = getelementptr inbounds %"class.hermes::parser::JSLexer", ptr %this1, i32 0, i32 14
  %3 = load ptr, ptr %curCharPtr_3, align 8
  call void @_ZN6hermes6parser7JSLexer11finishTokenEPKc(ptr noundef nonnull align 8 dereferenceable(1128) %this1, ptr noundef %3)
  %token_4 = getelementptr inbounds %"class.hermes::parser::JSLexer", ptr %this1, i32 0, i32 11
  ret ptr %token_4
}