; Function Attrs: mustprogress nounwind uwtable
define hidden noundef nonnull ptr @_ZN6hermes6parser7JSLexer29rescanRBraceInTemplateLiteralEv(ptr noundef nonnull align 8 dereferenceable(1128) initializes((64, 72), (176, 180), (448, 452)) %this) local_unnamed_addr #1 align 2 {
entry:
  %curCharPtr_ = getelementptr inbounds nuw i8, ptr %this, i64 144
  %0 = load ptr, ptr %curCharPtr_, align 8
  %incdec.ptr = getelementptr inbounds i8, ptr %0, i64 -1
  store ptr %incdec.ptr, ptr %curCharPtr_, align 8
  %storeTokens_ = getelementptr inbounds nuw i8, ptr %this, i64 50
  %1 = load i8, ptr %storeTokens_, align 2
  %tobool = trunc i8 %1 to i1
  br i1 %tobool, label %if.then, label %if.end

if.then:                                          ; preds = %entry
  %_M_finish.i = getelementptr inbounds nuw i8, ptr %this, i64 1112
  %2 = load ptr, ptr %_M_finish.i, align 8
  %incdec.ptr.i = getelementptr inbounds i8, ptr %2, i64 -24
  store ptr %incdec.ptr.i, ptr %_M_finish.i, align 8
  br label %if.end

if.end:                                           ; preds = %if.then, %entry
  %range_.i = getelementptr inbounds nuw i8, ptr %this, i64 64
  store ptr %incdec.ptr, ptr %range_.i, align 8
  tail call void @_ZN6hermes6parser7JSLexer19scanTemplateLiteralEv(ptr noundef nonnull align 8 dereferenceable(1128) %this)
  %3 = load ptr, ptr %curCharPtr_, align 8
  %End.i.i = getelementptr inbounds nuw i8, ptr %this, i64 72
  %retval.sroa.0.0.copyload.i.i = load ptr, ptr %End.i.i, align 8
  %prevTokenEndLoc_.i = getelementptr inbounds nuw i8, ptr %this, i64 128
  store ptr %retval.sroa.0.0.copyload.i.i, ptr %prevTokenEndLoc_.i, align 8
  store ptr %3, ptr %End.i.i, align 8
  %4 = load i8, ptr %storeTokens_, align 2
  %tobool.i = trunc i8 %4 to i1
  br i1 %tobool.i, label %if.then.i, label %_ZN6hermes6parser7JSLexer11finishTokenEPKc.exit

if.then.i:                                        ; preds = %if.end
  tail call void @_ZN6hermes6parser7JSLexer17storeCurrentTokenEv(ptr noundef nonnull align 8 dereferenceable(1128) %this)
  br label %_ZN6hermes6parser7JSLexer11finishTokenEPKc.exit

_ZN6hermes6parser7JSLexer11finishTokenEPKc.exit:  ; preds = %if.end, %if.then.i
  %token_ = getelementptr inbounds nuw i8, ptr %this, i64 56
  ret ptr %token_
}